; ModuleID = 'source-C-CXX/18/573.c'
source_filename = "source-C-CXX/18/573.c"
target datalayout = "e-m:e-p270:32:32-p271:32:32-p272:64:64-i64:64-f80:128-n8:16:32:64-S128"
target triple = "x86_64-pc-linux-gnu"

@.str = private unnamed_addr constant [3 x i8] c"%s\00", align 1

; Function Attrs: nounwind sspstrong uwtable
define dso_local void @main() local_unnamed_addr #0 {
  %1 = alloca [100 x i8], align 16
  %2 = alloca [100 x i8], align 16
  %3 = alloca [100 x i8], align 16
  %4 = alloca [100 x i8], align 16
  %5 = getelementptr inbounds [100 x i8], [100 x i8]* %1, i64 0, i64 0
  call void @llvm.lifetime.start.p0i8(i64 100, i8* nonnull %5) #7
  call void @llvm.memset.p0i8.i64(i8* noundef nonnull align 16 dereferenceable(100) %5, i8 0, i64 100, i1 false)
  %6 = getelementptr inbounds [100 x i8], [100 x i8]* %2, i64 0, i64 0
  call void @llvm.lifetime.start.p0i8(i64 100, i8* nonnull %6) #7
  call void @llvm.memset.p0i8.i64(i8* noundef nonnull align 16 dereferenceable(100) %6, i8 0, i64 100, i1 false)
  %7 = getelementptr inbounds [100 x i8], [100 x i8]* %3, i64 0, i64 0
  call void @llvm.lifetime.start.p0i8(i64 100, i8* nonnull %7) #7
  call void @llvm.memset.p0i8.i64(i8* noundef nonnull align 16 dereferenceable(100) %7, i8 0, i64 100, i1 false)
  %8 = getelementptr inbounds [100 x i8], [100 x i8]* %4, i64 0, i64 0
  call void @llvm.lifetime.start.p0i8(i64 100, i8* nonnull %8) #7
  call void @llvm.memset.p0i8.i64(i8* noundef nonnull align 16 dereferenceable(100) %8, i8 0, i64 100, i1 false)
  %9 = call i32 (i8*, ...) bitcast (i32 (...)* @gets to i32 (i8*, ...)*)(i8* nonnull %7) #7
  %10 = call i32 (i8*, ...) bitcast (i32 (...)* @gets to i32 (i8*, ...)*)(i8* nonnull %5) #7
  %11 = call i32 (i8*, ...) bitcast (i32 (...)* @gets to i32 (i8*, ...)*)(i8* nonnull %6) #7
  br label %12

12:                                               ; preds = %47, %0
  %13 = phi i64 [ 0, %0 ], [ %49, %47 ]
  %14 = shl i64 %13, 32
  %15 = ashr exact i64 %14, 32
  br label %16

16:                                               ; preds = %21, %12
  %17 = phi i64 [ %23, %21 ], [ %15, %12 ]
  %18 = phi i64 [ %24, %21 ], [ 0, %12 ]
  %19 = getelementptr inbounds [100 x i8], [100 x i8]* %3, i64 0, i64 %17
  %20 = load i8, i8* %19, align 1, !tbaa !5
  switch i8 %20, label %21 [
    i8 32, label %25
    i8 0, label %25
  ]

21:                                               ; preds = %16
  %22 = getelementptr inbounds [100 x i8], [100 x i8]* %4, i64 0, i64 %18
  store i8 %20, i8* %22, align 1, !tbaa !5
  %23 = add i64 %17, 1
  %24 = add nuw i64 %18, 1
  br label %16, !llvm.loop !8

25:                                               ; preds = %16, %16
  %26 = getelementptr inbounds [100 x i8], [100 x i8]* %3, i64 0, i64 %17
  %27 = and i64 %18, 4294967295
  %28 = getelementptr inbounds [100 x i8], [100 x i8]* %4, i64 0, i64 %27
  store i8 0, i8* %28, align 1, !tbaa !5
  %29 = call i32 @strcmp(i8* noundef nonnull %8, i8* noundef nonnull %5) #8
  %30 = icmp eq i32 %29, 0
  br i1 %30, label %34, label %31

31:                                               ; preds = %25
  %32 = trunc i64 %18 to i32
  %33 = icmp eq i32 %32, 0
  br i1 %33, label %44, label %36

34:                                               ; preds = %25
  %35 = call i32 (i8*, ...) @printf(i8* nonnull dereferenceable(1) getelementptr inbounds ([3 x i8], [3 x i8]* @.str, i64 0, i64 0), i8* nonnull %6)
  br label %44

36:                                               ; preds = %31, %36
  %37 = phi i64 [ %42, %36 ], [ 0, %31 ]
  %38 = getelementptr inbounds [100 x i8], [100 x i8]* %4, i64 0, i64 %37
  %39 = load i8, i8* %38, align 1, !tbaa !5
  %40 = sext i8 %39 to i32
  %41 = call i32 @putchar(i32 %40)
  %42 = add nuw nsw i64 %37, 1
  %43 = icmp eq i64 %42, %27
  br i1 %43, label %44, label %36, !llvm.loop !10

44:                                               ; preds = %36, %31, %34
  %45 = load i8, i8* %26, align 1, !tbaa !5
  %46 = icmp eq i8 %45, 0
  br i1 %46, label %50, label %47

47:                                               ; preds = %44
  %48 = call i32 @putchar(i32 32)
  %49 = add i64 %17, 1
  br label %12

50:                                               ; preds = %44
  call void @llvm.lifetime.end.p0i8(i64 100, i8* nonnull %8) #7
  call void @llvm.lifetime.end.p0i8(i64 100, i8* nonnull %7) #7
  call void @llvm.lifetime.end.p0i8(i64 100, i8* nonnull %6) #7
  call void @llvm.lifetime.end.p0i8(i64 100, i8* nonnull %5) #7
  ret void
}

; Function Attrs: argmemonly mustprogress nofree nosync nounwind willreturn
declare void @llvm.lifetime.start.p0i8(i64 immarg, i8* nocapture) #1

; Function Attrs: argmemonly mustprogress nofree nounwind willreturn writeonly
declare void @llvm.memset.p0i8.i64(i8* nocapture writeonly, i8, i64, i1 immarg) #2

declare i32 @gets(...) local_unnamed_addr #3

; Function Attrs: argmemonly mustprogress nofree nounwind readonly willreturn
declare i32 @strcmp(i8* nocapture, i8* nocapture) local_unnamed_addr #4

; Function Attrs: nofree nounwind
declare noundef i32 @printf(i8* nocapture noundef readonly, ...) local_unnamed_addr #5

; Function Attrs: argmemonly mustprogress nofree nosync nounwind willreturn
declare void @llvm.lifetime.end.p0i8(i64 immarg, i8* nocapture) #1

; Function Attrs: nofree nounwind
declare noundef i32 @putchar(i32 noundef) local_unnamed_addr #6


!llvm.module.flags = !{!0, !1, !2, !3}
!llvm.ident = !{!4}

!0 = !{i32 1, !"wchar_size", i32 4}
!1 = !{i32 7, !"PIC Level", i32 2}
!2 = !{i32 7, !"PIE Level", i32 2}
!3 = !{i32 7, !"uwtable", i32 1}
!4 = !{!"clang version 13.0.0"}
!5 = !{!6, !6, i64 0}
!6 = !{!"omnipotent char", !7, i64 0}
!7 = !{!"Simple C/C++ TBAA"}
!8 = distinct !{!8, !9}
!9 = !{!"llvm.loop.mustprogress"}
!10 = distinct !{!10, !9}
